; Function Attrs: nounwind uwtable
define internal fastcc noalias nonnull ptr @_init_l___private_Lean_Meta_Tactic_Simp_BuiltinSimprocs_Char_0____regBuiltin_Char_reduceDefault_declare__122____x40_Lean_Meta_Tactic_Simp_BuiltinSimprocs_Char___hyg_1496____closed__3() unnamed_addr #0 {
  %1 = load ptr, ptr @l_Char_reduceDefault___closed__4, align 8, !tbaa !10
  tail call void @lean_inc_heartbeat() #4
  %2 = tail call noalias ptr @mi_malloc_small(i64 noundef 24) #4
  %3 = icmp eq ptr %2, null
  br i1 %3, label %4, label %lean_alloc_ctor.exit

4:                                                ; preds = %0
  tail call void @lean_internal_panic_out_of_memory() #5
  unreachable

lean_alloc_ctor.exit:                             ; preds = %0
  %5 = getelementptr inbounds nuw i8, ptr %2, i64 4
  store i32 1, ptr %2, align 4, !tbaa !4
  store i32 131096, ptr %5, align 4
  %6 = getelementptr inbounds nuw i8, ptr %2, i64 8
  store ptr %1, ptr %6, align 8, !tbaa !10
  %7 = getelementptr inbounds nuw i8, ptr %2, i64 16
  store ptr inttoptr (i64 5 to ptr), ptr %7, align 8, !tbaa !10
  ret ptr %2
}